target datalayout = "e-m:e-p270:32:32-p271:32:32-p272:64:64-i64:64-i128:128-f80:128-n8:16:32:64-S128"
target triple = "x86_64-pc-linux-gnu"

%struct.opj_tcd_tilecomp = type { i32, i32, i32, i32, i32, i32, i32, ptr, i32, ptr, i32, i64, i64, ptr, i32, i32, i32, i32, i64 }

; Function Attrs: nounwind uwtable
define hidden i32 @opj_alloc_tile_component_data(ptr noundef %0) #0 {
  %2 = alloca i32, align 4
  %3 = alloca ptr, align 8
  store ptr %0, ptr %3, align 8, !tbaa !41
  %4 = load ptr, ptr %3, align 8, !tbaa !41
  %5 = getelementptr inbounds nuw %struct.opj_tcd_tilecomp, ptr %4, i32 0, i32 9
  %6 = load ptr, ptr %5, align 8, !tbaa !65
  %7 = icmp eq ptr %6, null
  br i1 %7, label %21, label %8

8:                                                ; preds = %1
  %9 = load ptr, ptr %3, align 8, !tbaa !41
  %10 = getelementptr inbounds nuw %struct.opj_tcd_tilecomp, ptr %9, i32 0, i32 11
  %11 = load i64, ptr %10, align 8, !tbaa !67
  %12 = load ptr, ptr %3, align 8, !tbaa !41
  %13 = getelementptr inbounds nuw %struct.opj_tcd_tilecomp, ptr %12, i32 0, i32 12
  %14 = load i64, ptr %13, align 8, !tbaa !66
  %15 = icmp ugt i64 %11, %14
  br i1 %15, label %16, label %46

16:                                               ; preds = %8
  %17 = load ptr, ptr %3, align 8, !tbaa !41
  %18 = getelementptr inbounds nuw %struct.opj_tcd_tilecomp, ptr %17, i32 0, i32 10
  %19 = load i32, ptr %18, align 8, !tbaa !64
  %20 = icmp eq i32 %19, 0
  br i1 %20, label %21, label %46

21:                                               ; preds = %16, %1
  %22 = load ptr, ptr %3, align 8, !tbaa !41
  %23 = getelementptr inbounds nuw %struct.opj_tcd_tilecomp, ptr %22, i32 0, i32 11
  %24 = load i64, ptr %23, align 8, !tbaa !67
  %25 = call ptr @opj_image_data_alloc(i64 noundef %24)
  %26 = load ptr, ptr %3, align 8, !tbaa !41
  %27 = getelementptr inbounds nuw %struct.opj_tcd_tilecomp, ptr %26, i32 0, i32 9
  store ptr %25, ptr %27, align 8, !tbaa !65
  %28 = load ptr, ptr %3, align 8, !tbaa !41
  %29 = getelementptr inbounds nuw %struct.opj_tcd_tilecomp, ptr %28, i32 0, i32 9
  %30 = load ptr, ptr %29, align 8, !tbaa !65
  %31 = icmp ne ptr %30, null
  br i1 %31, label %38, label %32

32:                                               ; preds = %21
  %33 = load ptr, ptr %3, align 8, !tbaa !41
  %34 = getelementptr inbounds nuw %struct.opj_tcd_tilecomp, ptr %33, i32 0, i32 11
  %35 = load i64, ptr %34, align 8, !tbaa !67
  %36 = icmp ne i64 %35, 0
  br i1 %36, label %37, label %38

37:                                               ; preds = %32
  store i32 0, ptr %2, align 4
  br label %85

38:                                               ; preds = %32, %21
  %39 = load ptr, ptr %3, align 8, !tbaa !41
  %40 = getelementptr inbounds nuw %struct.opj_tcd_tilecomp, ptr %39, i32 0, i32 11
  %41 = load i64, ptr %40, align 8, !tbaa !67
  %42 = load ptr, ptr %3, align 8, !tbaa !41
  %43 = getelementptr inbounds nuw %struct.opj_tcd_tilecomp, ptr %42, i32 0, i32 12
  store i64 %41, ptr %43, align 8, !tbaa !66
  %44 = load ptr, ptr %3, align 8, !tbaa !41
  %45 = getelementptr inbounds nuw %struct.opj_tcd_tilecomp, ptr %44, i32 0, i32 10
  store i32 1, ptr %45, align 8, !tbaa !64
  br label %84

46:                                               ; preds = %16, %8
  %47 = load ptr, ptr %3, align 8, !tbaa !41
  %48 = getelementptr inbounds nuw %struct.opj_tcd_tilecomp, ptr %47, i32 0, i32 11
  %49 = load i64, ptr %48, align 8, !tbaa !67
  %50 = load ptr, ptr %3, align 8, !tbaa !41
  %51 = getelementptr inbounds nuw %struct.opj_tcd_tilecomp, ptr %50, i32 0, i32 12
  %52 = load i64, ptr %51, align 8, !tbaa !66
  %53 = icmp ugt i64 %49, %52
  br i1 %53, label %54, label %83

54:                                               ; preds = %46
  %55 = load ptr, ptr %3, align 8, !tbaa !41
  %56 = getelementptr inbounds nuw %struct.opj_tcd_tilecomp, ptr %55, i32 0, i32 9
  %57 = load ptr, ptr %56, align 8, !tbaa !65
  call void @opj_image_data_free(ptr noundef %57)
  %58 = load ptr, ptr %3, align 8, !tbaa !41
  %59 = getelementptr inbounds nuw %struct.opj_tcd_tilecomp, ptr %58, i32 0, i32 11
  %60 = load i64, ptr %59, align 8, !tbaa !67
  %61 = call ptr @opj_image_data_alloc(i64 noundef %60)
  %62 = load ptr, ptr %3, align 8, !tbaa !41
  %63 = getelementptr inbounds nuw %struct.opj_tcd_tilecomp, ptr %62, i32 0, i32 9
  store ptr %61, ptr %63, align 8, !tbaa !65
  %64 = load ptr, ptr %3, align 8, !tbaa !41
  %65 = getelementptr inbounds nuw %struct.opj_tcd_tilecomp, ptr %64, i32 0, i32 9
  %66 = load ptr, ptr %65, align 8, !tbaa !65
  %67 = icmp ne ptr %66, null
  br i1 %67, label %75, label %68

68:                                               ; preds = %54
  %69 = load ptr, ptr %3, align 8, !tbaa !41
  %70 = getelementptr inbounds nuw %struct.opj_tcd_tilecomp, ptr %69, i32 0, i32 12
  store i64 0, ptr %70, align 8, !tbaa !66
  %71 = load ptr, ptr %3, align 8, !tbaa !41
  %72 = getelementptr inbounds nuw %struct.opj_tcd_tilecomp, ptr %71, i32 0, i32 11
  store i64 0, ptr %72, align 8, !tbaa !67
  %73 = load ptr, ptr %3, align 8, !tbaa !41
  %74 = getelementptr inbounds nuw %struct.opj_tcd_tilecomp, ptr %73, i32 0, i32 10
  store i32 0, ptr %74, align 8, !tbaa !64
  store i32 0, ptr %2, align 4
  br label %85

75:                                               ; preds = %54
  %76 = load ptr, ptr %3, align 8, !tbaa !41
  %77 = getelementptr inbounds nuw %struct.opj_tcd_tilecomp, ptr %76, i32 0, i32 11
  %78 = load i64, ptr %77, align 8, !tbaa !67
  %79 = load ptr, ptr %3, align 8, !tbaa !41
  %80 = getelementptr inbounds nuw %struct.opj_tcd_tilecomp, ptr %79, i32 0, i32 12
  store i64 %78, ptr %80, align 8, !tbaa !66
  %81 = load ptr, ptr %3, align 8, !tbaa !41
  %82 = getelementptr inbounds nuw %struct.opj_tcd_tilecomp, ptr %81, i32 0, i32 10
  store i32 1, ptr %82, align 8, !tbaa !64
  br label %83

83:                                               ; preds = %75, %46
  br label %84

84:                                               ; preds = %83, %38
  store i32 1, ptr %2, align 4
  br label %85

85:                                               ; preds = %84, %68, %37
  %86 = load i32, ptr %2, align 4
  ret i32 %86
}