; Function Attrs: nounwind uwtable
define hidden range(i32 0, 2) i32 @opj_alloc_tile_component_data(ptr noundef captures(none) %0) local_unnamed_addr #0 {
  %2 = getelementptr inbounds nuw i8, ptr %0, i64 48
  %3 = load ptr, ptr %2, align 8, !tbaa !52
  %4 = icmp eq ptr %3, null
  %.phi.trans.insert = getelementptr inbounds nuw i8, ptr %0, i64 64
  %.pre = load i64, ptr %.phi.trans.insert, align 8, !tbaa !56
  br i1 %4, label %._crit_edge, label %5

5:                                                ; preds = %1
  %6 = getelementptr inbounds nuw i8, ptr %0, i64 72
  %7 = load i64, ptr %6, align 8, !tbaa !57
  %8 = icmp ugt i64 %.pre, %7
  br i1 %8, label %9, label %24

9:                                                ; preds = %5
  %10 = getelementptr inbounds nuw i8, ptr %0, i64 56
  %11 = load i32, ptr %10, align 8, !tbaa !51
  %12 = icmp eq i32 %11, 0
  br i1 %12, label %._crit_edge, label %18

._crit_edge:                                      ; preds = %1, %9
  %13 = getelementptr inbounds nuw i8, ptr %0, i64 64
  %14 = tail call ptr @opj_image_data_alloc(i64 noundef %.pre) #16
  store ptr %14, ptr %2, align 8, !tbaa !52
  %.not23 = icmp ne ptr %14, null
  %.pre25 = load i64, ptr %13, align 8, !tbaa !56
  %.not24 = icmp eq i64 %.pre25, 0
  %or.cond = select i1 %.not23, i1 true, i1 %.not24
  br i1 %or.cond, label %15, label %24

15:                                               ; preds = %._crit_edge
  %16 = getelementptr inbounds nuw i8, ptr %0, i64 72
  store i64 %.pre25, ptr %16, align 8, !tbaa !57
  %17 = getelementptr inbounds nuw i8, ptr %0, i64 56
  store i32 1, ptr %17, align 8, !tbaa !51
  br label %24

18:                                               ; preds = %9
  tail call void @opj_image_data_free(ptr noundef nonnull %3) #16
  %19 = load i64, ptr %.phi.trans.insert, align 8, !tbaa !56
  %20 = tail call ptr @opj_image_data_alloc(i64 noundef %19) #16
  store ptr %20, ptr %2, align 8, !tbaa !52
  %.not = icmp eq ptr %20, null
  br i1 %.not, label %21, label %22

21:                                               ; preds = %18
  store i32 0, ptr %10, align 8, !tbaa !51
  tail call void @llvm.memset.p0.i64(ptr noundef nonnull align 8 dereferenceable(16) %.phi.trans.insert, i8 0, i64 16, i1 false)
  br label %24

22:                                               ; preds = %18
  %23 = load i64, ptr %.phi.trans.insert, align 8, !tbaa !56
  store i64 %23, ptr %6, align 8, !tbaa !57
  store i32 1, ptr %10, align 8, !tbaa !51
  br label %24

24:                                               ; preds = %._crit_edge, %5, %15, %22, %21
  %.0 = phi i32 [ 0, %21 ], [ 1, %22 ], [ 1, %15 ], [ 1, %5 ], [ 0, %._crit_edge ]
  ret i32 %.0
}